; Function Attrs: mustprogress nofree norecurse nosync nounwind willreturn memory(none) uwtable
define noundef ptr @_ZN4LIEF2PE9to_stringENS0_8CodeView10SIGNATURESE(i32 noundef %0) local_unnamed_addr #3 {
  %.not.i.i.i.i.i.i = icmp sgt i32 %0, 959464014
  %.not.i.i.i.i.i.i.i = icmp sgt i32 %0, 808534606
  %2 = select i1 %.not.i.i.i.i.i.i.i, i64 40, i64 8
  %.add.i.i = select i1 %.not.i.i.i.i.i.i, i64 72, i64 %2
  %.ptr13.i.i = getelementptr inbounds nuw i8, ptr @__const._ZN4LIEF2PE9to_stringENS0_8CodeView10SIGNATURESE.enums2str, i64 %.add.i.i
  %3 = load i32, ptr %.ptr13.i.i, align 8, !tbaa !48
  %.not.i.i6.i.i.i.i.i.i = icmp slt i32 %3, %0
  %.idx.i.i7.i.i.i.i.i.i = select i1 %.not.i.i6.i.i.i.i.i.i, i64 16, i64 0
  %.add12.i.i = or disjoint i64 %.idx.i.i7.i.i.i.i.i.i, %.add.i.i
  %.not.i.i = icmp eq i64 %.add12.i.i, 88
  br i1 %.not.i.i, label %_ZNK6frozen3mapIN4LIEF2PE8CodeView10SIGNATURESEPKcLm5ESt4lessIS4_EE4findIS4_EEPKSt4pairIS4_S6_ERKT_.exit.thread, label %4

4:                                                ; preds = %1
  %.ptr14.i.i = getelementptr inbounds nuw i8, ptr @__const._ZN4LIEF2PE9to_stringENS0_8CodeView10SIGNATURESE.enums2str, i64 %.add12.i.i
  %5 = load i32, ptr %.ptr14.i.i, align 8, !tbaa !48
  %.not15.i.i = icmp slt i32 %0, %5
  br i1 %.not15.i.i, label %_ZNK6frozen3mapIN4LIEF2PE8CodeView10SIGNATURESEPKcLm5ESt4lessIS4_EE4findIS4_EEPKSt4pairIS4_S6_ERKT_.exit.thread, label %6

6:                                                ; preds = %4
  %7 = getelementptr inbounds nuw i8, ptr %.ptr14.i.i, i64 8
  %8 = load ptr, ptr %7, align 8, !tbaa !49
  br label %_ZNK6frozen3mapIN4LIEF2PE8CodeView10SIGNATURESEPKcLm5ESt4lessIS4_EE4findIS4_EEPKSt4pairIS4_S6_ERKT_.exit.thread

_ZNK6frozen3mapIN4LIEF2PE8CodeView10SIGNATURESEPKcLm5ESt4lessIS4_EE4findIS4_EEPKSt4pairIS4_S6_ERKT_.exit.thread: ; preds = %4, %1, %6
  %9 = phi ptr [ %8, %6 ], [ @.str.2, %1 ], [ @.str.2, %4 ]
  ret ptr %9
}